target datalayout = "e-m:e-p270:32:32-p271:32:32-p272:64:64-i64:64-i128:128-f80:128-n8:16:32:64-S128"
target triple = "x86_64-pc-linux-gnu"

%class.tseitin_cnf_tactic = type { %class.tactic.base, ptr, %class.params_ref }
%class.tactic.base = type <{ %"class.user_propagator::core", i32 }>
%"class.user_propagator::core" = type { ptr }
%class.params_ref = type { ptr }
%class.tactic = type <{ %"class.user_propagator::core", i32, [4 x i8] }>

@.str = private unnamed_addr constant [9 x i8] c"elim_and\00", align 1
@.str.1 = private unnamed_addr constant [15 x i8] c"blast_distinct\00", align 1

; Function Attrs: inlinehint mustprogress nounwind uwtable
define linkonce_odr hidden void @_ZN15user_propagator4coreC2Ev(ptr noundef nonnull align 8 dereferenceable(8) %0) unnamed_addr #6 comdat align 2 {
  %2 = alloca ptr, align 8
  store ptr %0, ptr %2, align 8, !tbaa !69
  %3 = load ptr, ptr %2, align 8
  store ptr getelementptr inbounds inrange(-16, 104) ({ [15 x ptr] }, ptr @_ZTVN15user_propagator4coreE, i32 0, i32 0, i32 2), ptr %3, align 8, !tbaa !12
  ret void
}

; Function Attrs: mustprogress nounwind uwtable
define linkonce_odr hidden void @_ZN15user_propagator4coreD2Ev(ptr noundef nonnull align 8 dereferenceable(8) %0) unnamed_addr #7 comdat align 2 {
  %2 = alloca ptr, align 8
  store ptr %0, ptr %2, align 8, !tbaa !69
  ret void
}

; Function Attrs: inlinehint mustprogress nounwind uwtable
define linkonce_odr hidden void @_ZN6tacticC2Ev(ptr noundef nonnull align 8 dereferenceable(12) %0) unnamed_addr #6 comdat align 2 {
  %2 = alloca ptr, align 8
  store ptr %0, ptr %2, align 8, !tbaa !22
  %3 = load ptr, ptr %2, align 8
  call void @_ZN15user_propagator4coreC2Ev(ptr noundef nonnull align 8 dereferenceable(8) %3) #3
  store ptr getelementptr inbounds inrange(-16, 192) ({ [26 x ptr] }, ptr @_ZTV6tactic, i32 0, i32 0, i32 2), ptr %3, align 8, !tbaa !12
  %4 = getelementptr inbounds nuw %class.tactic, ptr %3, i32 0, i32 1
  store i32 0, ptr %4, align 8, !tbaa !24
  ret void
}

; Function Attrs: mustprogress uwtable
define linkonce_odr hidden void @_ZN18tseitin_cnf_tacticC2ER11ast_managerRK10params_ref(ptr noundef nonnull align 8 dereferenceable(32) %0, ptr noundef nonnull align 8 dereferenceable(976) %1, ptr noundef nonnull align 8 dereferenceable(8) %2) unnamed_addr #4 comdat align 2 personality ptr @__gxx_personality_v0 {
  %4 = alloca ptr, align 8
  %5 = alloca ptr, align 8
  %6 = alloca ptr, align 8
  %7 = alloca ptr, align 8
  %8 = alloca i32, align 4
  store ptr %0, ptr %4, align 8, !tbaa !10
  store ptr %1, ptr %5, align 8, !tbaa !3
  store ptr %2, ptr %6, align 8, !tbaa !8
  %9 = load ptr, ptr %4, align 8
  call void @_ZN6tacticC2Ev(ptr noundef nonnull align 8 dereferenceable(12) %9) #3
  store ptr getelementptr inbounds inrange(-16, 192) ({ [26 x ptr] }, ptr @_ZTV18tseitin_cnf_tactic, i32 0, i32 0, i32 2), ptr %9, align 8, !tbaa !12
  %10 = getelementptr inbounds nuw %class.tseitin_cnf_tactic, ptr %9, i32 0, i32 2
  %11 = load ptr, ptr %6, align 8, !tbaa !8
  invoke void @_ZN10params_refC1ERKS_(ptr noundef nonnull align 8 dereferenceable(8) %10, ptr noundef nonnull align 8 dereferenceable(8) %11)
          to label %12 unwind label %19

12:                                               ; preds = %3
  %13 = invoke noalias noundef ptr @_ZN6memory8allocateEm(i64 noundef 264)
          to label %14 unwind label %23

14:                                               ; preds = %12
  %15 = load ptr, ptr %5, align 8, !tbaa !3
  %16 = load ptr, ptr %6, align 8, !tbaa !8
  invoke void @_ZN18tseitin_cnf_tactic3impC2ER11ast_managerRK10params_ref(ptr noundef nonnull align 8 dereferenceable(260) %13, ptr noundef nonnull align 8 dereferenceable(976) %15, ptr noundef nonnull align 8 dereferenceable(8) %16)
          to label %17 unwind label %23

17:                                               ; preds = %14
  %18 = getelementptr inbounds nuw %class.tseitin_cnf_tactic, ptr %9, i32 0, i32 1
  store ptr %13, ptr %18, align 8, !tbaa !14
  ret void

19:                                               ; preds = %3
  %20 = landingpad { ptr, i32 }
          cleanup
  %21 = extractvalue { ptr, i32 } %20, 0
  store ptr %21, ptr %7, align 8
  %22 = extractvalue { ptr, i32 } %20, 1
  store i32 %22, ptr %8, align 4
  br label %27

23:                                               ; preds = %14, %12
  %24 = landingpad { ptr, i32 }
          cleanup
  %25 = extractvalue { ptr, i32 } %24, 0
  store ptr %25, ptr %7, align 8
  %26 = extractvalue { ptr, i32 } %24, 1
  store i32 %26, ptr %8, align 4
  call void @_ZN10params_refD1Ev(ptr noundef nonnull align 8 dereferenceable(8) %10) #3
  br label %27

27:                                               ; preds = %23, %19
  call void @_ZN15user_propagator4coreD2Ev(ptr noundef nonnull align 8 dereferenceable(12) %9) #3
  br label %28

28:                                               ; preds = %27
  %29 = load ptr, ptr %7, align 8
  %30 = load i32, ptr %8, align 4
  %31 = insertvalue { ptr, i32 } poison, ptr %29, 0
  %32 = insertvalue { ptr, i32 } %31, i32 %30, 1
  resume { ptr, i32 } %32
}

; Function Attrs: mustprogress uwtable
define hidden noundef ptr @_Z26mk_tseitin_cnf_core_tacticR11ast_managerRK10params_ref(ptr noundef nonnull align 8 dereferenceable(976) %0, ptr noundef nonnull align 8 dereferenceable(8) %1) #4 {
  %3 = alloca ptr, align 8
  %4 = alloca ptr, align 8
  store ptr %0, ptr %3, align 8, !tbaa !3
  store ptr %1, ptr %4, align 8, !tbaa !8
  %5 = call noalias noundef ptr @_ZN6memory8allocateEm(i64 noundef 32)
  %6 = load ptr, ptr %3, align 8, !tbaa !3
  %7 = load ptr, ptr %4, align 8, !tbaa !8
  call void @_ZN18tseitin_cnf_tacticC2ER11ast_managerRK10params_ref(ptr noundef nonnull align 8 dereferenceable(32) %5, ptr noundef nonnull align 8 dereferenceable(976) %6, ptr noundef nonnull align 8 dereferenceable(8) %7)
  %8 = call noundef ptr @_Z5cleanP6tactic(ptr noundef %5)
  ret ptr %8
}

; Function Attrs: mustprogress uwtable
define hidden noundef ptr @_Z21mk_tseitin_cnf_tacticR11ast_managerRK10params_ref(ptr noundef nonnull align 8 dereferenceable(976) %0, ptr noundef nonnull align 8 dereferenceable(8) %1) #4 personality ptr @__gxx_personality_v0 {
  %3 = alloca ptr, align 8
  %4 = alloca ptr, align 8
  %5 = alloca %class.params_ref, align 8
  %6 = alloca ptr, align 8
  %7 = alloca i32, align 4
  store ptr %0, ptr %3, align 8, !tbaa !3
  store ptr %1, ptr %4, align 8, !tbaa !8
  call void @llvm.lifetime.start.p0(i64 8, ptr %5) #3
  %8 = load ptr, ptr %4, align 8, !tbaa !8
  call void @_ZN10params_refC1ERKS_(ptr noundef nonnull align 8 dereferenceable(8) %5, ptr noundef nonnull align 8 dereferenceable(8) %8)
  invoke void @_ZN10params_ref8set_boolEPKcb(ptr noundef nonnull align 8 dereferenceable(8) %5, ptr noundef @.str, i1 noundef zeroext true)
          to label %9 unwind label %29

9:                                                ; preds = %2
  invoke void @_ZN10params_ref8set_boolEPKcb(ptr noundef nonnull align 8 dereferenceable(8) %5, ptr noundef @.str.1, i1 noundef zeroext true)
          to label %10 unwind label %29

10:                                               ; preds = %9
  %11 = load ptr, ptr %3, align 8, !tbaa !3
  %12 = load ptr, ptr %4, align 8, !tbaa !8
  %13 = invoke noundef ptr @_Z26mk_tseitin_cnf_core_tacticR11ast_managerRK10params_ref(ptr noundef nonnull align 8 dereferenceable(976) %11, ptr noundef nonnull align 8 dereferenceable(8) %12)
          to label %14 unwind label %29

14:                                               ; preds = %10
  %15 = load ptr, ptr %3, align 8, !tbaa !3
  %16 = load ptr, ptr %4, align 8, !tbaa !8
  %17 = invoke noundef ptr @_Z18mk_simplify_tacticR11ast_managerRK10params_ref(ptr noundef nonnull align 8 dereferenceable(976) %15, ptr noundef nonnull align 8 dereferenceable(8) %16)
          to label %18 unwind label %29

18:                                               ; preds = %14
  %19 = invoke noundef ptr @_Z12using_paramsP6tacticRK10params_ref(ptr noundef %17, ptr noundef nonnull align 8 dereferenceable(8) %5)
          to label %20 unwind label %29

20:                                               ; preds = %18
  %21 = load ptr, ptr %3, align 8, !tbaa !3
  %22 = load ptr, ptr %4, align 8, !tbaa !8
  %23 = invoke noundef ptr @_Z26mk_tseitin_cnf_core_tacticR11ast_managerRK10params_ref(ptr noundef nonnull align 8 dereferenceable(976) %21, ptr noundef nonnull align 8 dereferenceable(8) %22)
          to label %24 unwind label %29

24:                                               ; preds = %20
  %25 = invoke noundef ptr @_Z8and_thenP6tacticS0_(ptr noundef %19, ptr noundef %23)
          to label %26 unwind label %29

26:                                               ; preds = %24
  %27 = invoke noundef ptr @_Z7or_elseP6tacticS0_(ptr noundef %13, ptr noundef %25)
          to label %28 unwind label %29

28:                                               ; preds = %26
  call void @_ZN10params_refD1Ev(ptr noundef nonnull align 8 dereferenceable(8) %5) #3
  call void @llvm.lifetime.end.p0(i64 8, ptr %5) #3
  ret ptr %27

29:                                               ; preds = %26, %24, %20, %18, %14, %10, %9, %2
  %30 = landingpad { ptr, i32 }
          cleanup
  %31 = extractvalue { ptr, i32 } %30, 0
  store ptr %31, ptr %6, align 8
  %32 = extractvalue { ptr, i32 } %30, 1
  store i32 %32, ptr %7, align 4
  call void @_ZN10params_refD1Ev(ptr noundef nonnull align 8 dereferenceable(8) %5) #3
  call void @llvm.lifetime.end.p0(i64 8, ptr %5) #3
  br label %33

33:                                               ; preds = %29
  %34 = load ptr, ptr %6, align 8
  %35 = load i32, ptr %7, align 4
  %36 = insertvalue { ptr, i32 } poison, ptr %34, 0
  %37 = insertvalue { ptr, i32 } %36, i32 %35, 1
  resume { ptr, i32 } %37
}