; Function Attrs: mustprogress uwtable
define hidden noundef ptr @_Z21mk_tseitin_cnf_tacticR11ast_managerRK10params_ref(ptr noundef nonnull align 8 dereferenceable(976) %0, ptr noundef nonnull align 8 dereferenceable(8) %1) local_unnamed_addr #3 personality ptr @__gxx_personality_v0 {
  %3 = alloca %class.params_ref, align 8
  call void @llvm.lifetime.start.p0(i64 8, ptr nonnull %3) #18
  call void @_ZN10params_refC1ERKS_(ptr noundef nonnull align 8 dereferenceable(8) %3, ptr noundef nonnull align 8 dereferenceable(8) %1)
  invoke void @_ZN10params_ref8set_boolEPKcb(ptr noundef nonnull align 8 dereferenceable(8) %3, ptr noundef nonnull @.str, i1 noundef zeroext true)
          to label %4 unwind label %32

4:                                                ; preds = %2
  invoke void @_ZN10params_ref8set_boolEPKcb(ptr noundef nonnull align 8 dereferenceable(8) %3, ptr noundef nonnull @.str.1, i1 noundef zeroext true)
          to label %5 unwind label %32

5:                                                ; preds = %4
  %6 = invoke noalias noundef ptr @_ZN6memory8allocateEm(i64 noundef 32)
          to label %.noexc unwind label %32

.noexc:                                           ; preds = %5
  %7 = getelementptr inbounds nuw i8, ptr %6, i64 8
  store i32 0, ptr %7, align 8, !tbaa !3
  store ptr getelementptr inbounds nuw inrange(-16, 192) (i8, ptr @_ZTV18tseitin_cnf_tactic, i64 16), ptr %6, align 8, !tbaa !9
  %8 = getelementptr inbounds nuw i8, ptr %6, i64 24
  invoke void @_ZN10params_refC1ERKS_(ptr noundef nonnull align 8 dereferenceable(8) %8, ptr noundef nonnull align 8 dereferenceable(8) %1)
          to label %.noexc8 unwind label %32

.noexc8:                                          ; preds = %.noexc
  %9 = invoke noalias noundef ptr @_ZN6memory8allocateEm(i64 noundef 264)
          to label %10 unwind label %11

10:                                               ; preds = %.noexc8
  invoke void @_ZN18tseitin_cnf_tactic3impC2ER11ast_managerRK10params_ref(ptr noundef nonnull align 8 dereferenceable(260) %9, ptr noundef nonnull align 8 dereferenceable(976) %0, ptr noundef nonnull align 8 dereferenceable(8) %1)
          to label %_ZN18tseitin_cnf_tacticC2ER11ast_managerRK10params_ref.exit.i unwind label %11

11:                                               ; preds = %10, %.noexc8
  %12 = landingpad { ptr, i32 }
          cleanup
  call void @_ZN10params_refD1Ev(ptr noundef nonnull align 8 dereferenceable(8) %8) #18
  br label %.body

_ZN18tseitin_cnf_tacticC2ER11ast_managerRK10params_ref.exit.i: ; preds = %10
  %13 = getelementptr inbounds nuw i8, ptr %6, i64 16
  store ptr %9, ptr %13, align 8, !tbaa !11
  %14 = invoke noundef ptr @_Z5cleanP6tactic(ptr noundef nonnull %6)
          to label %_Z26mk_tseitin_cnf_core_tacticR11ast_managerRK10params_ref.exit unwind label %32

_Z26mk_tseitin_cnf_core_tacticR11ast_managerRK10params_ref.exit: ; preds = %_ZN18tseitin_cnf_tacticC2ER11ast_managerRK10params_ref.exit.i
  %15 = invoke noundef ptr @_Z18mk_simplify_tacticR11ast_managerRK10params_ref(ptr noundef nonnull align 8 dereferenceable(976) %0, ptr noundef nonnull align 8 dereferenceable(8) %1)
          to label %16 unwind label %32

16:                                               ; preds = %_Z26mk_tseitin_cnf_core_tacticR11ast_managerRK10params_ref.exit
  %17 = invoke noundef ptr @_Z12using_paramsP6tacticRK10params_ref(ptr noundef %15, ptr noundef nonnull align 8 dereferenceable(8) %3)
          to label %18 unwind label %32

18:                                               ; preds = %16
  %19 = invoke noalias noundef ptr @_ZN6memory8allocateEm(i64 noundef 32)
          to label %.noexc11 unwind label %32

.noexc11:                                         ; preds = %18
  %20 = getelementptr inbounds nuw i8, ptr %19, i64 8
  store i32 0, ptr %20, align 8, !tbaa !3
  store ptr getelementptr inbounds nuw inrange(-16, 192) (i8, ptr @_ZTV18tseitin_cnf_tactic, i64 16), ptr %19, align 8, !tbaa !9
  %21 = getelementptr inbounds nuw i8, ptr %19, i64 24
  invoke void @_ZN10params_refC1ERKS_(ptr noundef nonnull align 8 dereferenceable(8) %21, ptr noundef nonnull align 8 dereferenceable(8) %1)
          to label %.noexc12 unwind label %32

.noexc12:                                         ; preds = %.noexc11
  %22 = invoke noalias noundef ptr @_ZN6memory8allocateEm(i64 noundef 264)
          to label %23 unwind label %24

23:                                               ; preds = %.noexc12
  invoke void @_ZN18tseitin_cnf_tactic3impC2ER11ast_managerRK10params_ref(ptr noundef nonnull align 8 dereferenceable(260) %22, ptr noundef nonnull align 8 dereferenceable(976) %0, ptr noundef nonnull align 8 dereferenceable(8) %1)
          to label %_ZN18tseitin_cnf_tacticC2ER11ast_managerRK10params_ref.exit.i10 unwind label %24

24:                                               ; preds = %23, %.noexc12
  %25 = landingpad { ptr, i32 }
          cleanup
  call void @_ZN10params_refD1Ev(ptr noundef nonnull align 8 dereferenceable(8) %21) #18
  br label %.body

_ZN18tseitin_cnf_tacticC2ER11ast_managerRK10params_ref.exit.i10: ; preds = %23
  %26 = getelementptr inbounds nuw i8, ptr %19, i64 16
  store ptr %22, ptr %26, align 8, !tbaa !11
  %27 = invoke noundef ptr @_Z5cleanP6tactic(ptr noundef nonnull %19)
          to label %_Z26mk_tseitin_cnf_core_tacticR11ast_managerRK10params_ref.exit16 unwind label %32

_Z26mk_tseitin_cnf_core_tacticR11ast_managerRK10params_ref.exit16: ; preds = %_ZN18tseitin_cnf_tacticC2ER11ast_managerRK10params_ref.exit.i10
  %28 = invoke noundef ptr @_Z8and_thenP6tacticS0_(ptr noundef %17, ptr noundef %27)
          to label %29 unwind label %32

29:                                               ; preds = %_Z26mk_tseitin_cnf_core_tacticR11ast_managerRK10params_ref.exit16
  %30 = invoke noundef ptr @_Z7or_elseP6tacticS0_(ptr noundef %14, ptr noundef %28)
          to label %31 unwind label %32

31:                                               ; preds = %29
  call void @_ZN10params_refD1Ev(ptr noundef nonnull align 8 dereferenceable(8) %3) #18
  call void @llvm.lifetime.end.p0(i64 8, ptr nonnull %3) #18
  ret ptr %30

32:                                               ; preds = %_ZN18tseitin_cnf_tacticC2ER11ast_managerRK10params_ref.exit.i10, %.noexc11, %18, %_ZN18tseitin_cnf_tacticC2ER11ast_managerRK10params_ref.exit.i, %.noexc, %5, %29, %_Z26mk_tseitin_cnf_core_tacticR11ast_managerRK10params_ref.exit16, %16, %_Z26mk_tseitin_cnf_core_tacticR11ast_managerRK10params_ref.exit, %4, %2
  %33 = landingpad { ptr, i32 }
          cleanup
  br label %.body

.body:                                            ; preds = %32, %24, %11
  %eh.lpad-body = phi { ptr, i32 } [ %12, %11 ], [ %33, %32 ], [ %25, %24 ]
  call void @_ZN10params_refD1Ev(ptr noundef nonnull align 8 dereferenceable(8) %3) #18
  call void @llvm.lifetime.end.p0(i64 8, ptr nonnull %3) #18
  resume { ptr, i32 } %eh.lpad-body
}